target datalayout = "e-m:e-p270:32:32-p271:32:32-p272:64:64-i64:64-i128:128-f80:128-n8:16:32:64-S128"
target triple = "x86_64-pc-linux-gnu"

%struct.expert_field = type { i32, i32 }

@hf_xapl_accessory_info = internal global i32 0, align 4
@hf_xapl_accessory_info_vendor_id = internal global i32 0, align 4
@hf_xapl_accessory_info_product_id = internal global i32 0, align 4
@hf_xapl_accessory_info_version = internal global i32 0, align 4
@hf_xapl_host_info = internal global i32 0, align 4
@hf_xapl_features = internal global i32 0, align 4
@ei_xapl_features_reserved = internal global %struct.expert_field zeroinitializer, align 4
@ett_bthfp_xapl_features = internal global i32 0, align 4
@ett_bthfp_xapl_accessory_info = internal global i32 0, align 4

; Function Attrs: alwaysinline nounwind
define internal ptr @memcpy.inline(ptr noalias %0, ptr noalias %1, i64 %2) #5 {
  %4 = alloca ptr, align 8
  %5 = alloca ptr, align 8
  %6 = alloca i64, align 8
  store ptr %0, ptr %4, align 8
  store ptr %1, ptr %5, align 8
  store i64 %2, ptr %6, align 8
  %7 = load ptr, ptr %4, align 8
  %8 = load ptr, ptr %5, align 8
  %9 = load i64, ptr %6, align 8
  %10 = load ptr, ptr %4, align 8
  %11 = call i64 @llvm.objectsize.i64.p0(ptr %10, i1 false, i1 true, i1 true)
  %12 = call ptr @__memcpy_chk(ptr noundef %7, ptr noundef %8, i64 noundef %9, i64 noundef %11) #11
  ret ptr %12
}

; Function Attrs: null_pointer_is_valid sspstrong uwtable
define internal i32 @get_uint_parameter(ptr noundef %0, i32 noundef %1) #0 {
  %3 = alloca ptr, align 8
  %4 = alloca i32, align 4
  %5 = alloca i32, align 4
  %6 = alloca ptr, align 8
  store ptr %0, ptr %3, align 8
  store i32 %1, ptr %4, align 4
  call void @llvm.lifetime.start.p0(i64 4, ptr %5) #11
  call void @llvm.lifetime.start.p0(i64 8, ptr %6) #11
  %7 = call ptr @wmem_packet_scope()
  %8 = load i32, ptr %4, align 4
  %9 = add i32 %8, 1
  %10 = sext i32 %9 to i64
  %11 = call noalias ptr @wmem_alloc(ptr noundef %7, i64 noundef %10) #12
  store ptr %11, ptr %6, align 8
  %12 = load ptr, ptr %6, align 8
  %13 = load ptr, ptr %3, align 8
  %14 = load i32, ptr %4, align 4
  %15 = sext i32 %14 to i64
  %16 = call ptr @memcpy.inline(ptr noundef %12, ptr noundef %13, i64 noundef %15) #11
  %17 = load ptr, ptr %6, align 8
  %18 = load i32, ptr %4, align 4
  %19 = sext i32 %18 to i64
  %20 = getelementptr i8, ptr %17, i64 %19
  store i8 0, ptr %20, align 1
  %21 = load ptr, ptr %6, align 8
  %22 = call i64 @g_ascii_strtoull(ptr noundef %21, ptr noundef null, i32 noundef 10)
  %23 = trunc i64 %22 to i32
  store i32 %23, ptr %5, align 4
  %24 = load i32, ptr %5, align 4
  call void @llvm.lifetime.end.p0(i64 8, ptr %6) #11
  call void @llvm.lifetime.end.p0(i64 4, ptr %5) #11
  ret i32 %24
}

; Function Attrs: null_pointer_is_valid sspstrong uwtable
define internal i32 @get_uint_hex_parameter(ptr noundef %0, i32 noundef %1) #0 {
  %3 = alloca ptr, align 8
  %4 = alloca i32, align 4
  %5 = alloca i32, align 4
  %6 = alloca ptr, align 8
  store ptr %0, ptr %3, align 8
  store i32 %1, ptr %4, align 4
  call void @llvm.lifetime.start.p0(i64 4, ptr %5) #11
  call void @llvm.lifetime.start.p0(i64 8, ptr %6) #11
  %7 = call ptr @wmem_packet_scope()
  %8 = load i32, ptr %4, align 4
  %9 = add i32 %8, 1
  %10 = sext i32 %9 to i64
  %11 = call noalias ptr @wmem_alloc(ptr noundef %7, i64 noundef %10) #12
  store ptr %11, ptr %6, align 8
  %12 = load ptr, ptr %6, align 8
  %13 = load ptr, ptr %3, align 8
  %14 = load i32, ptr %4, align 4
  %15 = sext i32 %14 to i64
  %16 = call ptr @memcpy.inline(ptr noundef %12, ptr noundef %13, i64 noundef %15) #11
  %17 = load ptr, ptr %6, align 8
  %18 = load i32, ptr %4, align 4
  %19 = sext i32 %18 to i64
  %20 = getelementptr i8, ptr %17, i64 %19
  store i8 0, ptr %20, align 1
  %21 = load ptr, ptr %6, align 8
  %22 = call i64 @g_ascii_strtoull(ptr noundef %21, ptr noundef null, i32 noundef 16)
  %23 = trunc i64 %22 to i32
  store i32 %23, ptr %5, align 4
  %24 = load i32, ptr %5, align 4
  call void @llvm.lifetime.end.p0(i64 8, ptr %6) #11
  call void @llvm.lifetime.end.p0(i64 4, ptr %5) #11
  ret i32 %24
}

; Function Attrs: nounwind null_pointer_is_valid sspstrong uwtable
define internal zeroext i1 @check_xapl(i32 noundef %0, i16 noundef zeroext %1) #10 {
  %3 = alloca i1, align 1
  %4 = alloca i32, align 4
  %5 = alloca i16, align 2
  store i32 %0, ptr %4, align 4
  store i16 %1, ptr %5, align 2
  %6 = load i32, ptr %4, align 4
  %7 = icmp eq i32 %6, 2
  br i1 %7, label %8, label %13

8:                                                ; preds = %2
  %9 = load i16, ptr %5, align 2
  %10 = zext i16 %9 to i32
  %11 = icmp eq i32 %10, 61
  br i1 %11, label %12, label %13

12:                                               ; preds = %8
  store i1 true, ptr %3, align 1
  br label %26

13:                                               ; preds = %8, %2
  %14 = load i32, ptr %4, align 4
  %15 = icmp eq i32 %14, 1
  br i1 %15, label %16, label %25

16:                                               ; preds = %13
  %17 = load i16, ptr %5, align 2
  %18 = zext i16 %17 to i32
  %19 = icmp eq i32 %18, 58
  br i1 %19, label %24, label %20

20:                                               ; preds = %16
  %21 = load i16, ptr %5, align 2
  %22 = zext i16 %21 to i32
  %23 = icmp eq i32 %22, 61
  br i1 %23, label %24, label %25

24:                                               ; preds = %20, %16
  store i1 true, ptr %3, align 1
  br label %26

25:                                               ; preds = %20, %13
  store i1 false, ptr %3, align 1
  br label %26

26:                                               ; preds = %25, %24, %12
  %27 = load i1, ptr %3, align 1
  ret i1 %27
}

; Function Attrs: null_pointer_is_valid sspstrong uwtable
define internal zeroext i1 @dissect_xapl_parameter(ptr noundef %0, ptr noundef %1, ptr noundef %2, i32 noundef %3, i32 noundef %4, i16 noundef zeroext %5, ptr noundef %6, i32 noundef %7, i32 noundef %8, ptr noundef %9) #0 {
  %11 = alloca i1, align 1
  %12 = alloca ptr, align 8
  %13 = alloca ptr, align 8
  %14 = alloca ptr, align 8
  %15 = alloca i32, align 4
  %16 = alloca i32, align 4
  %17 = alloca i16, align 2
  %18 = alloca ptr, align 8
  %19 = alloca i32, align 4
  %20 = alloca i32, align 4
  %21 = alloca ptr, align 8
  %22 = alloca ptr, align 8
  %23 = alloca ptr, align 8
  %24 = alloca i32, align 4
  %25 = alloca i32, align 4
  store ptr %0, ptr %12, align 8
  store ptr %1, ptr %13, align 8
  store ptr %2, ptr %14, align 8
  store i32 %3, ptr %15, align 4
  store i32 %4, ptr %16, align 4
  store i16 %5, ptr %17, align 2
  store ptr %6, ptr %18, align 8
  store i32 %7, ptr %19, align 4
  store i32 %8, ptr %20, align 4
  store ptr %9, ptr %21, align 8
  call void @llvm.lifetime.start.p0(i64 8, ptr %22) #11
  call void @llvm.lifetime.start.p0(i64 8, ptr %23) #11
  call void @llvm.lifetime.start.p0(i64 4, ptr %24) #11
  %26 = load i32, ptr %16, align 4
  %27 = load i16, ptr %17, align 2
  %28 = call zeroext i1 @check_xapl(i32 noundef %26, i16 noundef zeroext %27)
  br i1 %28, label %30, label %29

29:                                               ; preds = %10
  store i1 false, ptr %11, align 1
  store i32 1, ptr %25, align 4
  br label %109

30:                                               ; preds = %10
  %31 = load i32, ptr %19, align 4
  %32 = icmp eq i32 %31, 0
  br i1 %32, label %33, label %83

33:                                               ; preds = %30
  %34 = load i32, ptr %16, align 4
  %35 = icmp eq i32 %34, 2
  br i1 %35, label %36, label %75

36:                                               ; preds = %33
  %37 = load ptr, ptr %14, align 8
  %38 = load i32, ptr @hf_xapl_accessory_info, align 4
  %39 = load ptr, ptr %12, align 8
  %40 = load i32, ptr %15, align 4
  %41 = load i32, ptr %20, align 4
  %42 = call ptr @proto_tree_add_item(ptr noundef %37, i32 noundef %38, ptr noundef %39, i32 noundef %40, i32 noundef %41, i32 noundef 0)
  store ptr %42, ptr %22, align 8
  %43 = load ptr, ptr %22, align 8
  %44 = load i32, ptr @ett_bthfp_xapl_accessory_info, align 4
  %45 = call ptr @proto_item_add_subtree(ptr noundef %43, i32 noundef %44)
  store ptr %45, ptr %23, align 8
  %46 = load ptr, ptr %18, align 8
  %47 = getelementptr i8, ptr %46, i64 0
  %48 = call i32 @get_uint_hex_parameter(ptr noundef %47, i32 noundef 4)
  store i32 %48, ptr %24, align 4
  %49 = load ptr, ptr %23, align 8
  %50 = load i32, ptr @hf_xapl_accessory_info_vendor_id, align 4
  %51 = load ptr, ptr %12, align 8
  %52 = load i32, ptr %15, align 4
  %53 = load i32, ptr %24, align 4
  %54 = call ptr @proto_tree_add_uint(ptr noundef %49, i32 noundef %50, ptr noundef %51, i32 noundef %52, i32 noundef 4, i32 noundef %53)
  %55 = load ptr, ptr %18, align 8
  %56 = getelementptr i8, ptr %55, i64 5
  %57 = call i32 @get_uint_hex_parameter(ptr noundef %56, i32 noundef 4)
  store i32 %57, ptr %24, align 4
  %58 = load ptr, ptr %23, align 8
  %59 = load i32, ptr @hf_xapl_accessory_info_product_id, align 4
  %60 = load ptr, ptr %12, align 8
  %61 = load i32, ptr %15, align 4
  %62 = add i32 %61, 5
  %63 = load i32, ptr %24, align 4
  %64 = call ptr @proto_tree_add_uint(ptr noundef %58, i32 noundef %59, ptr noundef %60, i32 noundef %62, i32 noundef 4, i32 noundef %63)
  %65 = load ptr, ptr %18, align 8
  %66 = getelementptr i8, ptr %65, i64 10
  %67 = call i32 @get_uint_hex_parameter(ptr noundef %66, i32 noundef 4)
  store i32 %67, ptr %24, align 4
  %68 = load ptr, ptr %23, align 8
  %69 = load i32, ptr @hf_xapl_accessory_info_version, align 4
  %70 = load ptr, ptr %12, align 8
  %71 = load i32, ptr %15, align 4
  %72 = add i32 %71, 10
  %73 = load i32, ptr %24, align 4
  %74 = call ptr @proto_tree_add_uint(ptr noundef %68, i32 noundef %69, ptr noundef %70, i32 noundef %72, i32 noundef 4, i32 noundef %73)
  br label %82

75:                                               ; preds = %33
  %76 = load ptr, ptr %14, align 8
  %77 = load i32, ptr @hf_xapl_host_info, align 4
  %78 = load ptr, ptr %12, align 8
  %79 = load i32, ptr %15, align 4
  %80 = load i32, ptr %20, align 4
  %81 = call ptr @proto_tree_add_item(ptr noundef %76, i32 noundef %77, ptr noundef %78, i32 noundef %79, i32 noundef %80, i32 noundef 0)
  br label %82

82:                                               ; preds = %75, %36
  br label %108

83:                                               ; preds = %30
  %84 = load i32, ptr %19, align 4
  %85 = icmp eq i32 %84, 1
  br i1 %85, label %86, label %106

86:                                               ; preds = %83
  %87 = load ptr, ptr %18, align 8
  %88 = load i32, ptr %20, align 4
  %89 = call i32 @get_uint_parameter(ptr noundef %87, i32 noundef %88)
  store i32 %89, ptr %24, align 4
  %90 = load ptr, ptr %14, align 8
  %91 = load ptr, ptr %12, align 8
  %92 = load i32, ptr %15, align 4
  %93 = load i32, ptr @hf_xapl_features, align 4
  %94 = load i32, ptr @ett_bthfp_xapl_features, align 4
  %95 = load i32, ptr %24, align 4
  %96 = zext i32 %95 to i64
  %97 = call ptr @proto_tree_add_bitmask_value_with_flags(ptr noundef %90, ptr noundef %91, i32 noundef %92, i32 noundef %93, i32 noundef %94, ptr noundef @dissect_xapl_parameter.hfx, i64 noundef %96, i32 noundef 1)
  store ptr %97, ptr %22, align 8
  %98 = load i32, ptr %24, align 4
  %99 = lshr i32 %98, 5
  %100 = icmp ne i32 %99, 0
  br i1 %100, label %101, label %105

101:                                              ; preds = %86
  %102 = load ptr, ptr %13, align 8
  %103 = load ptr, ptr %22, align 8
  %104 = call ptr @expert_add_info(ptr noundef %102, ptr noundef %103, ptr noundef @ei_xapl_features_reserved)
  br label %105

105:                                              ; preds = %101, %86
  br label %107

106:                                              ; preds = %83
  store i1 false, ptr %11, align 1
  store i32 1, ptr %25, align 4
  br label %109

107:                                              ; preds = %105
  br label %108

108:                                              ; preds = %107, %82
  store i1 true, ptr %11, align 1
  store i32 1, ptr %25, align 4
  br label %109

109:                                              ; preds = %108, %106, %29
  call void @llvm.lifetime.end.p0(i64 4, ptr %24) #11
  call void @llvm.lifetime.end.p0(i64 8, ptr %23) #11
  call void @llvm.lifetime.end.p0(i64 8, ptr %22) #11
  %110 = load i1, ptr %11, align 1
  ret i1 %110
}