; Function Attrs: null_pointer_is_valid sspstrong uwtable
define internal noundef zeroext i1 @dissect_xapl_parameter(ptr noundef %0, ptr noundef %1, ptr noundef %2, i32 noundef %3, i32 noundef %4, i16 noundef zeroext %5, ptr noundef readonly captures(none) %6, i32 noundef %7, i32 noundef %8, ptr readnone captures(none) %9) #0 {
  %11 = icmp eq i32 %4, 2
  %12 = icmp eq i16 %5, 61
  %or.cond.i = and i1 %11, %12
  br i1 %or.cond.i, label %check_xapl.exit.thread, label %13

13:                                               ; preds = %10
  %14 = icmp eq i32 %4, 1
  br i1 %14, label %check_xapl.exit, label %check_xapl.exit.thread40

check_xapl.exit:                                  ; preds = %13
  switch i16 %5, label %check_xapl.exit.thread40 [
    i16 61, label %check_xapl.exit.thread
    i16 58, label %check_xapl.exit.thread
  ]

check_xapl.exit.thread:                           ; preds = %check_xapl.exit, %check_xapl.exit, %10
  switch i32 %7, label %check_xapl.exit.thread40 [
    i32 0, label %15
    i32 1, label %52
  ]

15:                                               ; preds = %check_xapl.exit.thread
  br i1 %11, label %16, label %49

16:                                               ; preds = %15
  %17 = load i32, ptr @hf_xapl_accessory_info, align 4
  %18 = tail call ptr @proto_tree_add_item(ptr noundef %2, i32 noundef %17, ptr noundef %0, i32 noundef %3, i32 noundef %8, i32 noundef 0)
  %19 = load i32, ptr @ett_bthfp_xapl_accessory_info, align 4
  %20 = tail call ptr @proto_item_add_subtree(ptr noundef %18, i32 noundef %19)
  %21 = tail call ptr @wmem_packet_scope()
  %22 = tail call noalias dereferenceable_or_null(5) ptr @wmem_alloc(ptr noundef %21, i64 noundef 5) #11
  %23 = load i32, ptr %6, align 1
  store i32 %23, ptr %22, align 1
  %24 = getelementptr i8, ptr %22, i64 4
  store i8 0, ptr %24, align 1
  %25 = tail call i64 @g_ascii_strtoull(ptr noundef %22, ptr noundef null, i32 noundef 16)
  %26 = trunc i64 %25 to i32
  %27 = load i32, ptr @hf_xapl_accessory_info_vendor_id, align 4
  %28 = tail call ptr @proto_tree_add_uint(ptr noundef %20, i32 noundef %27, ptr noundef %0, i32 noundef %3, i32 noundef 4, i32 noundef %26)
  %29 = getelementptr i8, ptr %6, i64 5
  %30 = tail call ptr @wmem_packet_scope()
  %31 = tail call noalias dereferenceable_or_null(5) ptr @wmem_alloc(ptr noundef %30, i64 noundef 5) #11
  %32 = load i32, ptr %29, align 1
  store i32 %32, ptr %31, align 1
  %33 = getelementptr i8, ptr %31, i64 4
  store i8 0, ptr %33, align 1
  %34 = tail call i64 @g_ascii_strtoull(ptr noundef %31, ptr noundef null, i32 noundef 16)
  %35 = trunc i64 %34 to i32
  %36 = load i32, ptr @hf_xapl_accessory_info_product_id, align 4
  %37 = add i32 %3, 5
  %38 = tail call ptr @proto_tree_add_uint(ptr noundef %20, i32 noundef %36, ptr noundef %0, i32 noundef %37, i32 noundef 4, i32 noundef %35)
  %39 = getelementptr i8, ptr %6, i64 10
  %40 = tail call ptr @wmem_packet_scope()
  %41 = tail call noalias dereferenceable_or_null(5) ptr @wmem_alloc(ptr noundef %40, i64 noundef 5) #11
  %42 = load i32, ptr %39, align 1
  store i32 %42, ptr %41, align 1
  %43 = getelementptr i8, ptr %41, i64 4
  store i8 0, ptr %43, align 1
  %44 = tail call i64 @g_ascii_strtoull(ptr noundef %41, ptr noundef null, i32 noundef 16)
  %45 = trunc i64 %44 to i32
  %46 = load i32, ptr @hf_xapl_accessory_info_version, align 4
  %47 = add i32 %3, 10
  %48 = tail call ptr @proto_tree_add_uint(ptr noundef %20, i32 noundef %46, ptr noundef %0, i32 noundef %47, i32 noundef 4, i32 noundef %45)
  br label %check_xapl.exit.thread40

49:                                               ; preds = %15
  %50 = load i32, ptr @hf_xapl_host_info, align 4
  %51 = tail call ptr @proto_tree_add_item(ptr noundef %2, i32 noundef %50, ptr noundef %0, i32 noundef %3, i32 noundef %8, i32 noundef 0)
  br label %check_xapl.exit.thread40

52:                                               ; preds = %check_xapl.exit.thread
  %53 = tail call ptr @wmem_packet_scope()
  %54 = add i32 %8, 1
  %55 = sext i32 %54 to i64
  %56 = tail call noalias ptr @wmem_alloc(ptr noundef %53, i64 noundef %55) #11
  %57 = sext i32 %8 to i64
  %58 = icmp ne i32 %54, -1
  tail call void @llvm.assume(i1 %58)
  %59 = tail call ptr @__memcpy_chk(ptr noundef %56, ptr noundef readonly %6, i64 noundef range(i64 -2147483648, 4294967296) %57, i64 noundef %55) #10, !alias.scope !37
  %60 = getelementptr i8, ptr %56, i64 %57
  store i8 0, ptr %60, align 1
  %61 = tail call i64 @g_ascii_strtoull(ptr noundef %56, ptr noundef null, i32 noundef 10)
  %62 = load i32, ptr @hf_xapl_features, align 4
  %63 = load i32, ptr @ett_bthfp_xapl_features, align 4
  %64 = and i64 %61, 4294967295
  %65 = tail call ptr @proto_tree_add_bitmask_value_with_flags(ptr noundef %2, ptr noundef %0, i32 noundef %3, i32 noundef %62, i32 noundef %63, ptr noundef nonnull @dissect_xapl_parameter.hfx, i64 noundef %64, i32 noundef 1)
  %66 = and i64 %61, 4294967264
  %.not = icmp eq i64 %66, 0
  br i1 %.not, label %check_xapl.exit.thread40, label %67

67:                                               ; preds = %52
  %68 = tail call ptr @expert_add_info(ptr noundef %1, ptr noundef %65, ptr noundef nonnull @ei_xapl_features_reserved)
  br label %check_xapl.exit.thread40

check_xapl.exit.thread40:                         ; preds = %check_xapl.exit, %13, %49, %16, %52, %67, %check_xapl.exit.thread
  %.0 = phi i1 [ false, %check_xapl.exit ], [ false, %check_xapl.exit.thread ], [ true, %67 ], [ true, %52 ], [ true, %16 ], [ true, %49 ], [ false, %13 ]
  ret i1 %.0
}